target datalayout = "e-m:e-p270:32:32-p271:32:32-p272:64:64-i64:64-i128:128-f80:128-n8:16:32:64-S128"
target triple = "x86_64-pc-linux-gnu"

; Function Attrs: nounwind uwtable
define i64 @Abc_allFlip(i64 noundef %0, ptr noundef %1) #0 {
  %3 = alloca i64, align 8
  %4 = alloca i64, align 8
  %5 = alloca ptr, align 8
  store i64 %0, ptr %4, align 8, !tbaa !13
  store ptr %1, ptr %5, align 8, !tbaa !15
  %6 = load i64, ptr %4, align 8, !tbaa !13
  %7 = lshr i64 %6, 63
  %8 = icmp ne i64 %7, 0
  br i1 %8, label %9, label %15

9:                                                ; preds = %2
  %10 = load ptr, ptr %5, align 8, !tbaa !15
  %11 = load i32, ptr %10, align 4, !tbaa !9
  %12 = xor i32 %11, 64
  store i32 %12, ptr %10, align 4, !tbaa !9
  %13 = load i64, ptr %4, align 8, !tbaa !13
  %14 = xor i64 %13, -1
  store i64 %14, ptr %3, align 8
  br label %17

15:                                               ; preds = %2
  %16 = load i64, ptr %4, align 8, !tbaa !13
  store i64 %16, ptr %3, align 8
  br label %17

17:                                               ; preds = %15, %9
  %18 = load i64, ptr %3, align 8
  ret i64 %18
}