; Function Attrs: mustprogress nofree norecurse nosync nounwind willreturn memory(argmem: readwrite) uwtable
define range(i64 0, -9223372036854775808) i64 @Abc_allFlip(i64 noundef %0, ptr noundef captures(none) %1) local_unnamed_addr #3 {
  %.not = icmp sgt i64 %0, -1
  br i1 %.not, label %7, label %3

3:                                                ; preds = %2
  %4 = load i32, ptr %1, align 4, !tbaa !8
  %5 = xor i32 %4, 64
  store i32 %5, ptr %1, align 4, !tbaa !8
  %6 = xor i64 %0, -1
  br label %7

7:                                                ; preds = %2, %3
  %.0 = phi i64 [ %6, %3 ], [ %0, %2 ]
  ret i64 %.0
}